; Function Attrs: mustprogress nofree norecurse nosync nounwind willreturn memory(argmem: read) uwtable
define noundef range(i32 0, 3) i32 @_Z38gmx_ana_poscalc_required_topology_infoP17gmx_ana_poscalc_t(ptr noundef readonly captures(none) %0) local_unnamed_addr #21 {
  %2 = load i32, ptr %0, align 8, !tbaa !82
  %.not.i = icmp eq i32 %2, 0
  br i1 %.not.i, label %8, label %3

3:                                                ; preds = %1
  %4 = getelementptr inbounds nuw i8, ptr %0, i64 4
  %5 = load i32, ptr %4, align 4, !tbaa !78
  %6 = and i32 %5, 129
  %or.cond10.i = icmp eq i32 %6, 0
  br i1 %or.cond10.i, label %7, label %_ZN3gmx12_GLOBAL__N_120requiredTopologyInfoE11e_poscalc_ti.exit

7:                                                ; preds = %3
  %or.cond.i = icmp ult i32 %2, 3
  br i1 %or.cond.i, label %_ZN3gmx12_GLOBAL__N_120requiredTopologyInfoE11e_poscalc_ti.exit, label %8

8:                                                ; preds = %7, %1
  br label %_ZN3gmx12_GLOBAL__N_120requiredTopologyInfoE11e_poscalc_ti.exit

_ZN3gmx12_GLOBAL__N_120requiredTopologyInfoE11e_poscalc_ti.exit: ; preds = %3, %7, %8
  %.0.i = phi i32 [ 0, %8 ], [ 2, %3 ], [ 1, %7 ]
  ret i32 %.0.i
}